; Function Attrs: mustprogress uwtable
define { ptr, ptr } @_ZNK8proxygen11HTTPMessage9getCookieERKNSt7__cxx1112basic_stringIcSt11char_traitsIcESaIcEEE(ptr noundef nonnull align 8 dereferenceable(616) %this, ptr noundef nonnull align 8 dereferenceable(32) %name) local_unnamed_addr #2 align 2 personality ptr @__gxx_personality_v0 {
entry:
  %ref.tmp = alloca %"class.folly::Range", align 8
  %cookies_.i = getelementptr inbounds i8, ptr %this, i64 384
  %_M_parent.i.i.i.i.i = getelementptr inbounds i8, ptr %this, i64 400
  %0 = load ptr, ptr %_M_parent.i.i.i.i.i, align 8
  invoke void @_ZNSt8_Rb_treeIN5folly5RangeIPKcEESt4pairIKS4_S4_ESt10_Select1stIS7_ESt4lessIS4_ESaIS7_EE8_M_eraseEPSt13_Rb_tree_nodeIS7_E(ptr noundef nonnull align 8 dereferenceable(48) %cookies_.i, ptr noundef %0)
          to label %if.end unwind label %terminate.lpad.i.i.i

terminate.lpad.i.i.i:                             ; preds = %entry
  %1 = landingpad { ptr, i32 }
          catch ptr null
  %2 = extractvalue { ptr, i32 } %1, 0
  tail call void @__clang_call_terminate(ptr %2) #35
  unreachable

if.end:                                           ; preds = %entry
  %add.ptr.i.i.i = getelementptr inbounds i8, ptr %this, i64 392
  store ptr null, ptr %_M_parent.i.i.i.i.i, align 8
  %_M_left.i.i.i.i = getelementptr inbounds i8, ptr %this, i64 408
  store ptr %add.ptr.i.i.i, ptr %_M_left.i.i.i.i, align 8
  %_M_right.i.i.i.i = getelementptr inbounds i8, ptr %this, i64 416
  store ptr %add.ptr.i.i.i, ptr %_M_right.i.i.i.i, align 8
  %_M_node_count.i.i.i.i = getelementptr inbounds i8, ptr %this, i64 424
  store i64 0, ptr %_M_node_count.i.i.i.i, align 8
  %parsedCookies_.i = getelementptr inbounds i8, ptr %this, i64 610
  %bf.load.i = load i8, ptr %parsedCookies_.i, align 2
  %bf.clear.i = and i8 %bf.load.i, -2
  store i8 %bf.clear.i, ptr %parsedCookies_.i, align 2
  tail call void @_ZNK8proxygen11HTTPMessage12parseCookiesEv(ptr noundef nonnull align 8 dereferenceable(616) %this)
  %call.i = tail call noundef ptr @_ZNKSt7__cxx1112basic_stringIcSt11char_traitsIcESaIcEE4dataEv(ptr noundef nonnull align 8 dereferenceable(32) %name) #23
  store ptr %call.i, ptr %ref.tmp, align 8
  %e_.i = getelementptr inbounds i8, ptr %ref.tmp, i64 8
  %call3.i = tail call noundef i64 @_ZNKSt7__cxx1112basic_stringIcSt11char_traitsIcESaIcEE4sizeEv(ptr noundef nonnull align 8 dereferenceable(32) %name) #23
  %add.ptr.i = getelementptr inbounds i8, ptr %call.i, i64 %call3.i
  store ptr %add.ptr.i, ptr %e_.i, align 8
  %call.i1 = call ptr @_ZNSt8_Rb_treeIN5folly5RangeIPKcEESt4pairIKS4_S4_ESt10_Select1stIS7_ESt4lessIS4_ESaIS7_EE4findERS6_(ptr noundef nonnull align 8 dereferenceable(48) %cookies_.i, ptr noundef nonnull align 8 dereferenceable(16) %ref.tmp)
  %cmp.i = icmp eq ptr %call.i1, %add.ptr.i.i.i
  br i1 %cmp.i, label %return, label %if.else

if.else:                                          ; preds = %if.end
  %second = getelementptr inbounds i8, ptr %call.i1, i64 48
  %retval.sroa.0.0.copyload = load ptr, ptr %second, align 8
  %retval.sroa.3.0.second.sroa_idx = getelementptr inbounds i8, ptr %call.i1, i64 56
  %retval.sroa.3.0.copyload = load ptr, ptr %retval.sroa.3.0.second.sroa_idx, align 8
  br label %return

return:                                           ; preds = %if.end, %if.else
  %retval.sroa.3.0 = phi ptr [ %retval.sroa.3.0.copyload, %if.else ], [ null, %if.end ]
  %retval.sroa.0.0 = phi ptr [ %retval.sroa.0.0.copyload, %if.else ], [ null, %if.end ]
  %.fca.0.insert = insertvalue { ptr, ptr } poison, ptr %retval.sroa.0.0, 0
  %.fca.1.insert = insertvalue { ptr, ptr } %.fca.0.insert, ptr %retval.sroa.3.0, 1
  ret { ptr, ptr } %.fca.1.insert
}